target datalayout = "e-m:e-p270:32:32-p271:32:32-p272:64:64-i64:64-i128:128-f80:128-n8:16:32:64-S128"
target triple = "x86_64-pc-linux-gnu"

@slamc1_.first = internal global i32 1, align 4
@slamc1_.lrnd = internal global i32 0, align 4
@slamc1_.lbeta = internal global i32 0, align 4
@slamc1_.lieee1 = internal global i32 0, align 4
@slamc1_.lt = internal global i32 0, align 4

; Function Attrs: nounwind uwtable
define float @slamc3_(ptr noundef %0, ptr noundef %1) #0 {
  %3 = alloca ptr, align 8
  %4 = alloca ptr, align 8
  %5 = alloca float, align 4
  store ptr %0, ptr %3, align 8, !tbaa !14
  store ptr %1, ptr %4, align 8, !tbaa !14
  call void @llvm.lifetime.start.p0(i64 4, ptr %5) #3
  %6 = load ptr, ptr %3, align 8, !tbaa !14
  %7 = load float, ptr %6, align 4, !tbaa !10
  %8 = load ptr, ptr %4, align 8, !tbaa !14
  %9 = load float, ptr %8, align 4, !tbaa !10
  %10 = fadd float %7, %9
  store float %10, ptr %5, align 4, !tbaa !10
  %11 = load float, ptr %5, align 4, !tbaa !10
  call void @llvm.lifetime.end.p0(i64 4, ptr %5) #3
  ret float %11
}

; Function Attrs: nounwind uwtable
define i32 @slamc1_(ptr noundef %0, ptr noundef %1, ptr noundef %2, ptr noundef %3) #0 {
  %5 = alloca ptr, align 8
  %6 = alloca ptr, align 8
  %7 = alloca ptr, align 8
  %8 = alloca ptr, align 8
  %9 = alloca float, align 4
  %10 = alloca float, align 4
  %11 = alloca float, align 4
  %12 = alloca float, align 4
  %13 = alloca float, align 4
  %14 = alloca float, align 4
  %15 = alloca float, align 4
  %16 = alloca float, align 4
  %17 = alloca float, align 4
  %18 = alloca float, align 4
  %19 = alloca float, align 4
  store ptr %0, ptr %5, align 8, !tbaa !12
  store ptr %1, ptr %6, align 8, !tbaa !12
  store ptr %2, ptr %7, align 8, !tbaa !12
  store ptr %3, ptr %8, align 8, !tbaa !12
  call void @llvm.lifetime.start.p0(i64 4, ptr %9) #3
  call void @llvm.lifetime.start.p0(i64 4, ptr %10) #3
  call void @llvm.lifetime.start.p0(i64 4, ptr %11) #3
  call void @llvm.lifetime.start.p0(i64 4, ptr %12) #3
  call void @llvm.lifetime.start.p0(i64 4, ptr %13) #3
  call void @llvm.lifetime.start.p0(i64 4, ptr %14) #3
  call void @llvm.lifetime.start.p0(i64 4, ptr %15) #3
  call void @llvm.lifetime.start.p0(i64 4, ptr %16) #3
  call void @llvm.lifetime.start.p0(i64 4, ptr %17) #3
  call void @llvm.lifetime.start.p0(i64 4, ptr %18) #3
  call void @llvm.lifetime.start.p0(i64 4, ptr %19) #3
  %20 = load i32, ptr @slamc1_.first, align 4, !tbaa !8
  %21 = icmp ne i32 %20, 0
  br i1 %21, label %22, label %119

22:                                               ; preds = %4
  store float 1.000000e+00, ptr %18, align 4, !tbaa !10
  store float 1.000000e+00, ptr %11, align 4, !tbaa !10
  store float 1.000000e+00, ptr %13, align 4, !tbaa !10
  br label %23

23:                                               ; preds = %27, %22
  %24 = load float, ptr %13, align 4, !tbaa !10
  %25 = load float, ptr %18, align 4, !tbaa !10
  %26 = fcmp oeq float %24, %25
  br i1 %26, label %27, label %34

27:                                               ; preds = %23
  %28 = load float, ptr %11, align 4, !tbaa !10
  %29 = fmul float %28, 2.000000e+00
  store float %29, ptr %11, align 4, !tbaa !10
  %30 = call float @slamc3_(ptr noundef %11, ptr noundef %18)
  store float %30, ptr %13, align 4, !tbaa !10
  %31 = load float, ptr %11, align 4, !tbaa !10
  %32 = fneg float %31
  store float %32, ptr %9, align 4, !tbaa !10
  %33 = call float @slamc3_(ptr noundef %13, ptr noundef %9)
  store float %33, ptr %13, align 4, !tbaa !10
  br label %23

34:                                               ; preds = %23
  store float 1.000000e+00, ptr %12, align 4, !tbaa !10
  %35 = call float @slamc3_(ptr noundef %11, ptr noundef %12)
  store float %35, ptr %13, align 4, !tbaa !10
  br label %36

36:                                               ; preds = %40, %34
  %37 = load float, ptr %13, align 4, !tbaa !10
  %38 = load float, ptr %11, align 4, !tbaa !10
  %39 = fcmp oeq float %37, %38
  br i1 %39, label %40, label %44

40:                                               ; preds = %36
  %41 = load float, ptr %12, align 4, !tbaa !10
  %42 = fmul float %41, 2.000000e+00
  store float %42, ptr %12, align 4, !tbaa !10
  %43 = call float @slamc3_(ptr noundef %11, ptr noundef %12)
  store float %43, ptr %13, align 4, !tbaa !10
  br label %36

44:                                               ; preds = %36
  %45 = load float, ptr %18, align 4, !tbaa !10
  %46 = fdiv float %45, 4.000000e+00
  store float %46, ptr %19, align 4, !tbaa !10
  %47 = load float, ptr %13, align 4, !tbaa !10
  store float %47, ptr %15, align 4, !tbaa !10
  %48 = load float, ptr %11, align 4, !tbaa !10
  %49 = fneg float %48
  store float %49, ptr %9, align 4, !tbaa !10
  %50 = call float @slamc3_(ptr noundef %13, ptr noundef %9)
  store float %50, ptr %13, align 4, !tbaa !10
  %51 = load float, ptr %13, align 4, !tbaa !10
  %52 = load float, ptr %19, align 4, !tbaa !10
  %53 = fadd float %51, %52
  %54 = fptosi float %53 to i32
  store i32 %54, ptr @slamc1_.lbeta, align 4, !tbaa !8
  %55 = load i32, ptr @slamc1_.lbeta, align 4, !tbaa !8
  %56 = sitofp i32 %55 to float
  store float %56, ptr %12, align 4, !tbaa !10
  %57 = load float, ptr %12, align 4, !tbaa !10
  %58 = fdiv float %57, 2.000000e+00
  store float %58, ptr %9, align 4, !tbaa !10
  %59 = load float, ptr %12, align 4, !tbaa !10
  %60 = fneg float %59
  %61 = fdiv float %60, 1.000000e+02
  store float %61, ptr %10, align 4, !tbaa !10
  %62 = call float @slamc3_(ptr noundef %9, ptr noundef %10)
  store float %62, ptr %14, align 4, !tbaa !10
  %63 = call float @slamc3_(ptr noundef %14, ptr noundef %11)
  store float %63, ptr %13, align 4, !tbaa !10
  %64 = load float, ptr %13, align 4, !tbaa !10
  %65 = load float, ptr %11, align 4, !tbaa !10
  %66 = fcmp oeq float %64, %65
  br i1 %66, label %67, label %68

67:                                               ; preds = %44
  store i32 1, ptr @slamc1_.lrnd, align 4, !tbaa !8
  br label %69

68:                                               ; preds = %44
  store i32 0, ptr @slamc1_.lrnd, align 4, !tbaa !8
  br label %69

69:                                               ; preds = %68, %67
  %70 = load float, ptr %12, align 4, !tbaa !10
  %71 = fdiv float %70, 2.000000e+00
  store float %71, ptr %9, align 4, !tbaa !10
  %72 = load float, ptr %12, align 4, !tbaa !10
  %73 = fdiv float %72, 1.000000e+02
  store float %73, ptr %10, align 4, !tbaa !10
  %74 = call float @slamc3_(ptr noundef %9, ptr noundef %10)
  store float %74, ptr %14, align 4, !tbaa !10
  %75 = call float @slamc3_(ptr noundef %14, ptr noundef %11)
  store float %75, ptr %13, align 4, !tbaa !10
  %76 = load i32, ptr @slamc1_.lrnd, align 4, !tbaa !8
  %77 = icmp ne i32 %76, 0
  br i1 %77, label %78, label %83

78:                                               ; preds = %69
  %79 = load float, ptr %13, align 4, !tbaa !10
  %80 = load float, ptr %11, align 4, !tbaa !10
  %81 = fcmp oeq float %79, %80
  br i1 %81, label %82, label %83

82:                                               ; preds = %78
  store i32 0, ptr @slamc1_.lrnd, align 4, !tbaa !8
  br label %83

83:                                               ; preds = %82, %78, %69
  %84 = load float, ptr %12, align 4, !tbaa !10
  %85 = fdiv float %84, 2.000000e+00
  store float %85, ptr %9, align 4, !tbaa !10
  %86 = call float @slamc3_(ptr noundef %9, ptr noundef %11)
  store float %86, ptr %16, align 4, !tbaa !10
  %87 = load float, ptr %12, align 4, !tbaa !10
  %88 = fdiv float %87, 2.000000e+00
  store float %88, ptr %9, align 4, !tbaa !10
  %89 = call float @slamc3_(ptr noundef %9, ptr noundef %15)
  store float %89, ptr %17, align 4, !tbaa !10
  %90 = load float, ptr %16, align 4, !tbaa !10
  %91 = load float, ptr %11, align 4, !tbaa !10
  %92 = fcmp oeq float %90, %91
  br i1 %92, label %93, label %100

93:                                               ; preds = %83
  %94 = load float, ptr %17, align 4, !tbaa !10
  %95 = load float, ptr %15, align 4, !tbaa !10
  %96 = fcmp ogt float %94, %95
  br i1 %96, label %97, label %100

97:                                               ; preds = %93
  %98 = load i32, ptr @slamc1_.lrnd, align 4, !tbaa !8
  %99 = icmp ne i32 %98, 0
  br label %100

100:                                              ; preds = %97, %93, %83
  %101 = phi i1 [ false, %93 ], [ false, %83 ], [ %99, %97 ]
  %102 = zext i1 %101 to i32
  store i32 %102, ptr @slamc1_.lieee1, align 4, !tbaa !8
  store i32 0, ptr @slamc1_.lt, align 4, !tbaa !8
  store float 1.000000e+00, ptr %11, align 4, !tbaa !10
  store float 1.000000e+00, ptr %13, align 4, !tbaa !10
  br label %103

103:                                              ; preds = %107, %100
  %104 = load float, ptr %13, align 4, !tbaa !10
  %105 = load float, ptr %18, align 4, !tbaa !10
  %106 = fcmp oeq float %104, %105
  br i1 %106, label %107, label %118

107:                                              ; preds = %103
  %108 = load i32, ptr @slamc1_.lt, align 4, !tbaa !8
  %109 = add nsw i32 %108, 1
  store i32 %109, ptr @slamc1_.lt, align 4, !tbaa !8
  %110 = load i32, ptr @slamc1_.lbeta, align 4, !tbaa !8
  %111 = sitofp i32 %110 to float
  %112 = load float, ptr %11, align 4, !tbaa !10
  %113 = fmul float %112, %111
  store float %113, ptr %11, align 4, !tbaa !10
  %114 = call float @slamc3_(ptr noundef %11, ptr noundef %18)
  store float %114, ptr %13, align 4, !tbaa !10
  %115 = load float, ptr %11, align 4, !tbaa !10
  %116 = fneg float %115
  store float %116, ptr %9, align 4, !tbaa !10
  %117 = call float @slamc3_(ptr noundef %13, ptr noundef %9)
  store float %117, ptr %13, align 4, !tbaa !10
  br label %103

118:                                              ; preds = %103
  br label %119

119:                                              ; preds = %118, %4
  %120 = load i32, ptr @slamc1_.lbeta, align 4, !tbaa !8
  %121 = load ptr, ptr %5, align 8, !tbaa !12
  store i32 %120, ptr %121, align 4, !tbaa !8
  %122 = load i32, ptr @slamc1_.lt, align 4, !tbaa !8
  %123 = load ptr, ptr %6, align 8, !tbaa !12
  store i32 %122, ptr %123, align 4, !tbaa !8
  %124 = load i32, ptr @slamc1_.lrnd, align 4, !tbaa !8
  %125 = load ptr, ptr %7, align 8, !tbaa !12
  store i32 %124, ptr %125, align 4, !tbaa !8
  %126 = load i32, ptr @slamc1_.lieee1, align 4, !tbaa !8
  %127 = load ptr, ptr %8, align 8, !tbaa !12
  store i32 %126, ptr %127, align 4, !tbaa !8
  store i32 0, ptr @slamc1_.first, align 4, !tbaa !8
  call void @llvm.lifetime.end.p0(i64 4, ptr %19) #3
  call void @llvm.lifetime.end.p0(i64 4, ptr %18) #3
  call void @llvm.lifetime.end.p0(i64 4, ptr %17) #3
  call void @llvm.lifetime.end.p0(i64 4, ptr %16) #3
  call void @llvm.lifetime.end.p0(i64 4, ptr %15) #3
  call void @llvm.lifetime.end.p0(i64 4, ptr %14) #3
  call void @llvm.lifetime.end.p0(i64 4, ptr %13) #3
  call void @llvm.lifetime.end.p0(i64 4, ptr %12) #3
  call void @llvm.lifetime.end.p0(i64 4, ptr %11) #3
  call void @llvm.lifetime.end.p0(i64 4, ptr %10) #3
  call void @llvm.lifetime.end.p0(i64 4, ptr %9) #3
  ret i32 0
}